Certificate:
    Data:
        Version: 3 (0x2)
        Serial Number: 1 (0x1)
    Signature Algorithm: sha1WithRSAEncryption
        Issuer: CN=pft, C=FR, ST=PACA, L=Aix, O=Eurecom, OU=CM
        Validity
            Not Before: May 20 16:17:21 2015 GMT
            Not After : May 19 16:17:21 2016 GMT
        Subject: C=FR, ST=PACA, O=Eurecom, OU=CM, CN=ubuntu.pft
        Subject Public Key Info:
            Public Key Algorithm: rsaEncryption
                Public-Key: (1024 bit)
                Modulus:
                    00:c6:03:b0:02:41:68:20:42:61:b6:8d:02:7d:b8:
                    4e:67:b3:a6:b8:40:8d:e6:87:19:a7:d4:34:3e:2e:
                    47:b4:22:17:ea:47:b7:7b:c5:07:7d:aa:d0:3c:4d:
                    71:28:51:44:ab:a5:00:da:06:d3:8a:88:82:49:e1:
                    ea:49:13:aa:b5:b2:68:c5:29:31:d7:a7:29:be:c0:
                    60:e7:e1:b1:31:16:d1:a0:d3:4d:2c:e6:b5:c8:d3:
                    e1:d2:75:cc:ba:8a:c9:e1:42:c4:c9:99:ab:0e:fd:
                    58:85:05:be:ab:67:1d:40:4d:70:18:4f:07:e2:18:
                    48:4f:87:5e:97:e3:e2:64:a7
                Exponent: 65537 (0x10001)
        X509v3 extensions:
            X509v3 Basic Constraints: 
                CA:FALSE
            Netscape Comment: 
                OpenSSL Generated Certificate
            X509v3 Subject Key Identifier: 
                F6:27:DC:E5:04:81:40:8C:88:87:16:51:34:48:27:B0:08:21:EC:04
            X509v3 Authority Key Identifier: 
                keyid:FB:B4:C3:20:BA:AD:0E:23:19:D9:E0:A6:C0:B1:56:CF:8A:27:FB:75

    Signature Algorithm: sha1WithRSAEncryption
         08:c1:fc:2c:ce:f9:5b:b9:43:c6:f1:e5:0a:9b:39:7e:d3:fa:
         85:21:c7:47:c9:10:db:34:61:47:dd:fb:4f:1c:7b:97:c2:6b:
         0a:e2:e7:83:f9:08:49:c2:69:66:ce:fe:7e:9e:0c:d7:4d:0e:
         1b:fd:4b:47:fa:06:ad:bb:39:c8:2d:2b:0d:6a:e2:8e:ec:3d:
         a2:0c:d5:e7:60:9f:a6:48:7b:bb:ec:2c:d0:a7:a7:b5:ab:2c:
         fb:ff:8f:48:29:e9:4f:c5:a6:4a:b0:75:95:4a:1f:9f:5b:9d:
         87:da:19:2a:05:a1:16:02:8a:7f:45:07:8e:22:41:8a:48:55:
         81:a6
-----BEGIN CERTIFICATE-----
MIICmDCCAgGgAwIBAgIBATANBgkqhkiG9w0BAQUFADBXMQwwCgYDVQQDDANwZnQx
CzAJBgNVBAYTAkZSMQ0wCwYDVQQIDARQQUNBMQwwCgYDVQQHDANBaXgxEDAOBgNV
BAoMB0V1cmVjb20xCzAJBgNVBAsMAkNNMB4XDTE1MDUyMDE2MTcyMVoXDTE2MDUx
OTE2MTcyMVowUDELMAkGA1UEBhMCRlIxDTALBgNVBAgMBFBBQ0ExEDAOBgNVBAoM
B0V1cmVjb20xCzAJBgNVBAsMAkNNMRMwEQYDVQQDDAp1YnVudHUucGZ0MIGfMA0G
CSqGSIb3DQEBAQUAA4GNADCBiQKBgQDGA7ACQWggQmG2jQJ9uE5ns6a4QI3mhxmn
1DQ+Lke0IhfqR7d7xQd9qtA8TXEoUUSrpQDaBtOKiIJJ4epJE6q1smjFKTHXpym+
wGDn4bExFtGg000s5rXI0+HSdcy6isnhQsTJmasO/ViFBb6rZx1ATXAYTwfiGEhP
h16X4+JkpwIDAQABo3sweTAJBgNVHRMEAjAAMCwGCWCGSAGG+EIBDQQfFh1PcGVu
U1NMIEdlbmVyYXRlZCBDZXJ0aWZpY2F0ZTAdBgNVHQ4EFgQU9ifc5QSBQIyIhxZR
NEgnsAgh7AQwHwYDVR0jBBgwFoAU+7TDILqtDiMZ2eCmwLFWz4on+3UwDQYJKoZI
hvcNAQEFBQADgYEACMH8LM75W7lDxvHlCps5ftP6hSHHR8kQ2zRhR937Txx7l8Jr
CuLng/kIScJpZs7+fp4M100OG/1LR/oGrbs5yC0rDWrijuw9ogzV52Cfpkh7u+ws
0Kentass+/+PSCnpT8WmSrB1lUofn1udh9oZKgWhFgKKf0UHjiJBikhVgaY=
-----END CERTIFICATE-----
